target datalayout = "e-m:e-p270:32:32-p271:32:32-p272:64:64-i64:64-i128:128-f80:128-n8:16:32:64-S128"
target triple = "x86_64-pc-linux-gnu"

%struct.allocation_info = type { ptr, ptr, i32, ptr, i16, i16, i16, i16, i32, ptr, %struct.slurm_step_id_msg, i32, ptr, i32, ptr }
%struct.slurm_step_id_msg = type { i64, i32, i32, i32 }
%struct.srun_job = type { %struct.slurm_step_id_msg, i32, i32, ptr, i32, i32, i32, i32, ptr, ptr, ptr, ptr, i32, i32, i32, i16, i16, i16, i16, i32, %union.pthread_mutex_t, %union.pthread_cond_t, i32, ptr, ptr, ptr, ptr, ptr, ptr, i32, i16, i16, i16, ptr, ptr, ptr, ptr, i32, ptr, i32, ptr }
%union.pthread_mutex_t = type { %struct.__pthread_mutex_s }
%struct.__pthread_mutex_s = type { i32, i32, i32, i32, i32, i16, i16, %struct.__pthread_internal_list }
%struct.__pthread_internal_list = type { ptr, ptr }
%union.pthread_cond_t = type { %struct.__pthread_cond_s }
%struct.__pthread_cond_s = type { %union.__atomic_wide_counter, %union.__atomic_wide_counter, [2 x i32], [2 x i32], i32, i32, [2 x i32] }
%union.__atomic_wide_counter = type { i64 }
%struct.resource_allocation_response_msg = type { ptr, i32, ptr, i32, i32, i32, ptr, ptr, i32, ptr, i32, i32, ptr, ptr, i32, ptr, i16, i16, i16, i16, i32, ptr, i64, ptr, ptr, ptr, ptr, i32, ptr, ptr }

@.str = private unnamed_addr constant [11 x i8] c"srun_job.c\00", align 1
@__func__.job_create_allocation = private unnamed_addr constant [22 x i8] c"job_create_allocation\00", align 1

; Function Attrs: nounwind uwtable
define internal ptr @_normalize_hostlist(ptr noundef %0) #0 {
  %2 = alloca ptr, align 8
  %3 = alloca ptr, align 8
  %4 = alloca ptr, align 8
  %5 = alloca ptr, align 8
  %6 = alloca i32, align 4
  store ptr %0, ptr %3, align 8
  call void @llvm.lifetime.start.p0(i64 8, ptr %4) #10
  store ptr null, ptr %4, align 8
  call void @llvm.lifetime.start.p0(i64 8, ptr %5) #10
  %7 = load ptr, ptr %3, align 8
  %8 = call ptr @hostlist_create(ptr noundef %7)
  store ptr %8, ptr %5, align 8
  %9 = load ptr, ptr %5, align 8
  %10 = icmp ne ptr %9, null
  br i1 %10, label %11, label %15

11:                                               ; preds = %1
  %12 = load ptr, ptr %5, align 8
  %13 = call ptr @hostlist_ranged_string_xmalloc(ptr noundef %12)
  store ptr %13, ptr %4, align 8
  %14 = load ptr, ptr %5, align 8
  call void @hostlist_destroy(ptr noundef %14)
  br label %15

15:                                               ; preds = %11, %1
  %16 = load ptr, ptr %4, align 8
  %17 = icmp ne ptr %16, null
  br i1 %17, label %21, label %18

18:                                               ; preds = %15
  %19 = load ptr, ptr %3, align 8
  %20 = call ptr @xstrdup(ptr noundef %19)
  store ptr %20, ptr %2, align 8
  store i32 1, ptr %6, align 4
  br label %23

21:                                               ; preds = %15
  %22 = load ptr, ptr %4, align 8
  store ptr %22, ptr %2, align 8
  store i32 1, ptr %6, align 4
  br label %23

23:                                               ; preds = %21, %18
  call void @llvm.lifetime.end.p0(i64 8, ptr %5) #10
  call void @llvm.lifetime.end.p0(i64 8, ptr %4) #10
  %24 = load ptr, ptr %2, align 8
  ret ptr %24
}

; Function Attrs: nounwind uwtable
define dso_local ptr @job_create_allocation(ptr noundef %0, ptr noundef %1) #0 {
  %3 = alloca ptr, align 8
  %4 = alloca ptr, align 8
  %5 = alloca ptr, align 8
  %6 = alloca ptr, align 8
  store ptr %0, ptr %3, align 8
  store ptr %1, ptr %4, align 8
  call void @llvm.lifetime.start.p0(i64 8, ptr %5) #10
  call void @llvm.lifetime.start.p0(i64 8, ptr %6) #10
  %7 = call ptr @slurm_xcalloc(i64 noundef 1, i64 noundef 112, i1 noundef zeroext true, i1 noundef zeroext false, ptr noundef @.str, i32 noundef 496, ptr noundef @__func__.job_create_allocation)
  store ptr %7, ptr %6, align 8
  %8 = load ptr, ptr %3, align 8
  %9 = getelementptr inbounds nuw %struct.resource_allocation_response_msg, ptr %8, i32 0, i32 15
  %10 = load ptr, ptr %9, align 8
  %11 = call ptr @_normalize_hostlist(ptr noundef %10)
  %12 = load ptr, ptr %6, align 8
  %13 = getelementptr inbounds nuw %struct.allocation_info, ptr %12, i32 0, i32 3
  store ptr %11, ptr %13, align 8
  %14 = load ptr, ptr %3, align 8
  %15 = getelementptr inbounds nuw %struct.resource_allocation_response_msg, ptr %14, i32 0, i32 14
  %16 = load i32, ptr %15, align 8
  %17 = load ptr, ptr %6, align 8
  %18 = getelementptr inbounds nuw %struct.allocation_info, ptr %17, i32 0, i32 2
  store i32 %16, ptr %18, align 8
  %19 = load ptr, ptr %3, align 8
  %20 = getelementptr inbounds nuw %struct.resource_allocation_response_msg, ptr %19, i32 0, i32 21
  %21 = load ptr, ptr %20, align 8
  %22 = load ptr, ptr %6, align 8
  %23 = getelementptr inbounds nuw %struct.allocation_info, ptr %22, i32 0, i32 9
  store ptr %21, ptr %23, align 8
  %24 = load ptr, ptr %3, align 8
  %25 = getelementptr inbounds nuw %struct.resource_allocation_response_msg, ptr %24, i32 0, i32 1
  %26 = load i32, ptr %25, align 8
  %27 = load ptr, ptr %6, align 8
  %28 = getelementptr inbounds nuw %struct.allocation_info, ptr %27, i32 0, i32 10
  %29 = getelementptr inbounds nuw %struct.slurm_step_id_msg, ptr %28, i32 0, i32 1
  store i32 %26, ptr %29, align 8
  %30 = load ptr, ptr %6, align 8
  %31 = getelementptr inbounds nuw %struct.allocation_info, ptr %30, i32 0, i32 10
  %32 = getelementptr inbounds nuw %struct.slurm_step_id_msg, ptr %31, i32 0, i32 3
  store i32 -2, ptr %32, align 8
  %33 = load ptr, ptr %6, align 8
  %34 = getelementptr inbounds nuw %struct.allocation_info, ptr %33, i32 0, i32 10
  %35 = getelementptr inbounds nuw %struct.slurm_step_id_msg, ptr %34, i32 0, i32 2
  store i32 -2, ptr %35, align 4
  %36 = load ptr, ptr %3, align 8
  %37 = getelementptr inbounds nuw %struct.resource_allocation_response_msg, ptr %36, i32 0, i32 20
  %38 = load i32, ptr %37, align 8
  %39 = load ptr, ptr %6, align 8
  %40 = getelementptr inbounds nuw %struct.allocation_info, ptr %39, i32 0, i32 8
  store i32 %38, ptr %40, align 8
  %41 = load ptr, ptr %3, align 8
  %42 = getelementptr inbounds nuw %struct.resource_allocation_response_msg, ptr %41, i32 0, i32 6
  %43 = load ptr, ptr %42, align 8
  %44 = load ptr, ptr %6, align 8
  %45 = getelementptr inbounds nuw %struct.allocation_info, ptr %44, i32 0, i32 0
  store ptr %43, ptr %45, align 8
  %46 = load ptr, ptr %3, align 8
  %47 = getelementptr inbounds nuw %struct.resource_allocation_response_msg, ptr %46, i32 0, i32 7
  %48 = load ptr, ptr %47, align 8
  %49 = load ptr, ptr %6, align 8
  %50 = getelementptr inbounds nuw %struct.allocation_info, ptr %49, i32 0, i32 1
  store ptr %48, ptr %50, align 8
  %51 = load ptr, ptr %3, align 8
  %52 = getelementptr inbounds nuw %struct.resource_allocation_response_msg, ptr %51, i32 0, i32 16
  %53 = load i16, ptr %52, align 8
  %54 = load ptr, ptr %6, align 8
  %55 = getelementptr inbounds nuw %struct.allocation_info, ptr %54, i32 0, i32 4
  store i16 %53, ptr %55, align 8
  %56 = load ptr, ptr %3, align 8
  %57 = getelementptr inbounds nuw %struct.resource_allocation_response_msg, ptr %56, i32 0, i32 17
  %58 = load i16, ptr %57, align 2
  %59 = load ptr, ptr %6, align 8
  %60 = getelementptr inbounds nuw %struct.allocation_info, ptr %59, i32 0, i32 5
  store i16 %58, ptr %60, align 2
  %61 = load ptr, ptr %3, align 8
  %62 = getelementptr inbounds nuw %struct.resource_allocation_response_msg, ptr %61, i32 0, i32 19
  %63 = load i16, ptr %62, align 2
  %64 = load ptr, ptr %6, align 8
  %65 = getelementptr inbounds nuw %struct.allocation_info, ptr %64, i32 0, i32 7
  store i16 %63, ptr %65, align 2
  %66 = load ptr, ptr %3, align 8
  %67 = getelementptr inbounds nuw %struct.resource_allocation_response_msg, ptr %66, i32 0, i32 27
  %68 = load i32, ptr %67, align 8
  %69 = load ptr, ptr %6, align 8
  %70 = getelementptr inbounds nuw %struct.allocation_info, ptr %69, i32 0, i32 11
  store i32 %68, ptr %70, align 8
  %71 = load ptr, ptr %3, align 8
  %72 = getelementptr inbounds nuw %struct.resource_allocation_response_msg, ptr %71, i32 0, i32 28
  %73 = load ptr, ptr %72, align 8
  %74 = call ptr @xstrdup(ptr noundef %73)
  %75 = load ptr, ptr %6, align 8
  %76 = getelementptr inbounds nuw %struct.allocation_info, ptr %75, i32 0, i32 12
  store ptr %74, ptr %76, align 8
  %77 = load ptr, ptr %3, align 8
  %78 = getelementptr inbounds nuw %struct.resource_allocation_response_msg, ptr %77, i32 0, i32 11
  %79 = load i32, ptr %78, align 4
  %80 = load ptr, ptr %6, align 8
  %81 = getelementptr inbounds nuw %struct.allocation_info, ptr %80, i32 0, i32 13
  store i32 %79, ptr %81, align 8
  %82 = load ptr, ptr %3, align 8
  %83 = getelementptr inbounds nuw %struct.resource_allocation_response_msg, ptr %82, i32 0, i32 12
  %84 = load ptr, ptr %83, align 8
  %85 = call ptr @xstrdup(ptr noundef %84)
  %86 = load ptr, ptr %6, align 8
  %87 = getelementptr inbounds nuw %struct.allocation_info, ptr %86, i32 0, i32 14
  store ptr %85, ptr %87, align 8
  %88 = load ptr, ptr %6, align 8
  %89 = load ptr, ptr %4, align 8
  %90 = call ptr @_job_create_structure(ptr noundef %88, ptr noundef %89)
  store ptr %90, ptr %5, align 8
  %91 = load ptr, ptr %5, align 8
  %92 = icmp ne ptr %91, null
  br i1 %92, label %93, label %112

93:                                               ; preds = %2
  %94 = load ptr, ptr %3, align 8
  %95 = getelementptr inbounds nuw %struct.resource_allocation_response_msg, ptr %94, i32 0, i32 0
  %96 = load ptr, ptr %95, align 8
  %97 = call ptr @xstrdup(ptr noundef %96)
  %98 = load ptr, ptr %5, align 8
  %99 = getelementptr inbounds nuw %struct.srun_job, ptr %98, i32 0, i32 34
  store ptr %97, ptr %99, align 8
  %100 = load ptr, ptr %3, align 8
  %101 = getelementptr inbounds nuw %struct.resource_allocation_response_msg, ptr %100, i32 0, i32 23
  %102 = load ptr, ptr %101, align 8
  %103 = call ptr @xstrdup(ptr noundef %102)
  %104 = load ptr, ptr %5, align 8
  %105 = getelementptr inbounds nuw %struct.srun_job, ptr %104, i32 0, i32 35
  store ptr %103, ptr %105, align 8
  %106 = load ptr, ptr %3, align 8
  %107 = getelementptr inbounds nuw %struct.resource_allocation_response_msg, ptr %106, i32 0, i32 24
  %108 = load ptr, ptr %107, align 8
  %109 = call ptr @xstrdup(ptr noundef %108)
  %110 = load ptr, ptr %5, align 8
  %111 = getelementptr inbounds nuw %struct.srun_job, ptr %110, i32 0, i32 36
  store ptr %109, ptr %111, align 8
  br label %112

112:                                              ; preds = %93, %2
  %113 = load ptr, ptr %6, align 8
  %114 = getelementptr inbounds nuw %struct.allocation_info, ptr %113, i32 0, i32 3
  call void @slurm_xfree(ptr noundef %114)
  call void @slurm_xfree(ptr noundef %6)
  %115 = load ptr, ptr %5, align 8
  call void @llvm.lifetime.end.p0(i64 8, ptr %6) #10
  call void @llvm.lifetime.end.p0(i64 8, ptr %5) #10
  ret ptr %115
}