; Function Attrs: nounwind uwtable
define dso_local ptr @job_create_allocation(ptr noundef readonly captures(none) %0, ptr noundef captures(none) %1) local_unnamed_addr #0 {
  %3 = alloca ptr, align 8
  call void @llvm.lifetime.start.p0(i64 8, ptr nonnull %3) #15
  %4 = tail call ptr @slurm_xcalloc(i64 noundef 1, i64 noundef 112, i1 noundef zeroext true, i1 noundef zeroext false, ptr noundef nonnull @.str, i32 noundef 496, ptr noundef nonnull @__func__.job_create_allocation) #15
  store ptr %4, ptr %3, align 8
  %5 = getelementptr inbounds nuw i8, ptr %0, i64 104
  %6 = load ptr, ptr %5, align 8
  %7 = tail call ptr @hostlist_create(ptr noundef %6) #15
  %.not.i = icmp eq ptr %7, null
  br i1 %.not.i, label %.thread.i, label %8

8:                                                ; preds = %2
  %9 = tail call ptr @hostlist_ranged_string_xmalloc(ptr noundef nonnull %7) #15
  tail call void @hostlist_destroy(ptr noundef nonnull %7) #15
  %.not10.i = icmp eq ptr %9, null
  br i1 %.not10.i, label %.thread.i, label %_normalize_hostlist.exit

.thread.i:                                        ; preds = %8, %2
  %10 = tail call ptr @xstrdup(ptr noundef %6) #15
  br label %_normalize_hostlist.exit

_normalize_hostlist.exit:                         ; preds = %8, %.thread.i
  %.0.i = phi ptr [ %10, %.thread.i ], [ %9, %8 ]
  %11 = getelementptr inbounds nuw i8, ptr %4, i64 24
  store ptr %.0.i, ptr %11, align 8
  %12 = getelementptr inbounds nuw i8, ptr %0, i64 96
  %13 = load i32, ptr %12, align 8
  %14 = getelementptr inbounds nuw i8, ptr %4, i64 16
  store i32 %13, ptr %14, align 8
  %15 = getelementptr inbounds nuw i8, ptr %0, i64 128
  %16 = load ptr, ptr %15, align 8
  %17 = getelementptr inbounds nuw i8, ptr %4, i64 48
  store ptr %16, ptr %17, align 8
  %18 = getelementptr inbounds nuw i8, ptr %0, i64 8
  %19 = load i32, ptr %18, align 8
  %20 = getelementptr inbounds nuw i8, ptr %4, i64 64
  store i32 %19, ptr %20, align 8
  %21 = getelementptr inbounds nuw i8, ptr %4, i64 72
  store i32 -2, ptr %21, align 8
  %22 = getelementptr inbounds nuw i8, ptr %4, i64 68
  store i32 -2, ptr %22, align 4
  %23 = getelementptr inbounds nuw i8, ptr %0, i64 120
  %24 = load i32, ptr %23, align 8
  %25 = getelementptr inbounds nuw i8, ptr %4, i64 40
  store i32 %24, ptr %25, align 8
  %26 = getelementptr inbounds nuw i8, ptr %0, i64 40
  %27 = load ptr, ptr %26, align 8
  store ptr %27, ptr %4, align 8
  %28 = getelementptr inbounds nuw i8, ptr %0, i64 48
  %29 = load ptr, ptr %28, align 8
  %30 = getelementptr inbounds nuw i8, ptr %4, i64 8
  store ptr %29, ptr %30, align 8
  %31 = getelementptr inbounds nuw i8, ptr %0, i64 112
  %32 = load i16, ptr %31, align 8
  %33 = getelementptr inbounds nuw i8, ptr %4, i64 32
  store i16 %32, ptr %33, align 8
  %34 = getelementptr inbounds nuw i8, ptr %0, i64 114
  %35 = load i16, ptr %34, align 2
  %36 = getelementptr inbounds nuw i8, ptr %4, i64 34
  store i16 %35, ptr %36, align 2
  %37 = getelementptr inbounds nuw i8, ptr %0, i64 118
  %38 = load i16, ptr %37, align 2
  %39 = getelementptr inbounds nuw i8, ptr %4, i64 38
  store i16 %38, ptr %39, align 2
  %40 = getelementptr inbounds nuw i8, ptr %0, i64 176
  %41 = load i32, ptr %40, align 8
  %42 = getelementptr inbounds nuw i8, ptr %4, i64 80
  store i32 %41, ptr %42, align 8
  %43 = getelementptr inbounds nuw i8, ptr %0, i64 184
  %44 = load ptr, ptr %43, align 8
  %45 = tail call ptr @xstrdup(ptr noundef %44) #15
  %46 = getelementptr inbounds nuw i8, ptr %4, i64 88
  store ptr %45, ptr %46, align 8
  %47 = getelementptr inbounds nuw i8, ptr %0, i64 76
  %48 = load i32, ptr %47, align 4
  %49 = getelementptr inbounds nuw i8, ptr %4, i64 96
  store i32 %48, ptr %49, align 8
  %50 = getelementptr inbounds nuw i8, ptr %0, i64 80
  %51 = load ptr, ptr %50, align 8
  %52 = tail call ptr @xstrdup(ptr noundef %51) #15
  %53 = getelementptr inbounds nuw i8, ptr %4, i64 104
  store ptr %52, ptr %53, align 8
  %54 = tail call fastcc ptr @_job_create_structure(ptr noundef nonnull %4, ptr noundef %1)
  %.not = icmp eq ptr %54, null
  br i1 %.not, label %67, label %55

55:                                               ; preds = %_normalize_hostlist.exit
  %56 = load ptr, ptr %0, align 8
  %57 = tail call ptr @xstrdup(ptr noundef %56) #15
  %58 = getelementptr inbounds nuw i8, ptr %54, i64 280
  store ptr %57, ptr %58, align 8
  %59 = getelementptr inbounds nuw i8, ptr %0, i64 144
  %60 = load ptr, ptr %59, align 8
  %61 = tail call ptr @xstrdup(ptr noundef %60) #15
  %62 = getelementptr inbounds nuw i8, ptr %54, i64 288
  store ptr %61, ptr %62, align 8
  %63 = getelementptr inbounds nuw i8, ptr %0, i64 152
  %64 = load ptr, ptr %63, align 8
  %65 = tail call ptr @xstrdup(ptr noundef %64) #15
  %66 = getelementptr inbounds nuw i8, ptr %54, i64 296
  store ptr %65, ptr %66, align 8
  br label %67

67:                                               ; preds = %55, %_normalize_hostlist.exit
  tail call void @slurm_xfree(ptr noundef nonnull %11) #15
  call void @slurm_xfree(ptr noundef nonnull %3) #15
  call void @llvm.lifetime.end.p0(i64 8, ptr nonnull %3) #15
  ret ptr %54
}